; Function Attrs: nounwind uwtable
define ptr @l_Lean_PrettyPrinter_Delaborator_isParentProj___boxed(ptr noundef %0, ptr noundef %1, ptr noundef %2, ptr noundef %3, ptr noundef %4, ptr noundef %5, ptr noundef %6) local_unnamed_addr #0 {
  %8 = ptrtoint ptr %0 to i64
  %9 = lshr i64 %8, 1
  %10 = trunc i64 %9 to i8
  %11 = and i64 %8, 1
  %.not = icmp eq i64 %11, 0
  br i1 %.not, label %12, label %lean_dec.exit18

12:                                               ; preds = %7
  %13 = load i32, ptr %0, align 4, !tbaa !8
  %14 = icmp sgt i32 %13, 1
  br i1 %14, label %15, label %17, !prof !11

15:                                               ; preds = %12
  %16 = add nsw i32 %13, -1
  store i32 %16, ptr %0, align 4, !tbaa !8
  br label %lean_dec.exit18

17:                                               ; preds = %12
  %.not.i = icmp eq i32 %13, 0
  br i1 %.not.i, label %lean_dec.exit18, label %18

18:                                               ; preds = %17
  tail call void @lean_dec_ref_cold(ptr noundef nonnull %0) #4
  br label %lean_dec.exit18

lean_dec.exit18:                                  ; preds = %18, %17, %15, %7
  %19 = tail call ptr @l_Lean_PrettyPrinter_Delaborator_isParentProj(i8 noundef zeroext %10, ptr noundef %1, ptr noundef %2, ptr noundef %3, ptr noundef %4, ptr noundef %5, ptr noundef %6)
  %20 = ptrtoint ptr %5 to i64
  %21 = and i64 %20, 1
  %.not29 = icmp eq i64 %21, 0
  br i1 %.not29, label %22, label %lean_dec.exit17

22:                                               ; preds = %lean_dec.exit18
  %23 = load i32, ptr %5, align 4, !tbaa !8
  %24 = icmp sgt i32 %23, 1
  br i1 %24, label %25, label %27, !prof !11

25:                                               ; preds = %22
  %26 = add nsw i32 %23, -1
  store i32 %26, ptr %5, align 4, !tbaa !8
  br label %lean_dec.exit17

27:                                               ; preds = %22
  %.not.i19 = icmp eq i32 %23, 0
  br i1 %.not.i19, label %lean_dec.exit17, label %28

28:                                               ; preds = %27
  tail call void @lean_dec_ref_cold(ptr noundef nonnull %5) #4
  br label %lean_dec.exit17

lean_dec.exit17:                                  ; preds = %28, %27, %25, %lean_dec.exit18
  %29 = ptrtoint ptr %4 to i64
  %30 = and i64 %29, 1
  %.not30 = icmp eq i64 %30, 0
  br i1 %.not30, label %31, label %lean_dec.exit16

31:                                               ; preds = %lean_dec.exit17
  %32 = load i32, ptr %4, align 4, !tbaa !8
  %33 = icmp sgt i32 %32, 1
  br i1 %33, label %34, label %36, !prof !11

34:                                               ; preds = %31
  %35 = add nsw i32 %32, -1
  store i32 %35, ptr %4, align 4, !tbaa !8
  br label %lean_dec.exit16

36:                                               ; preds = %31
  %.not.i21 = icmp eq i32 %32, 0
  br i1 %.not.i21, label %lean_dec.exit16, label %37

37:                                               ; preds = %36
  tail call void @lean_dec_ref_cold(ptr noundef nonnull %4) #4
  br label %lean_dec.exit16

lean_dec.exit16:                                  ; preds = %37, %36, %34, %lean_dec.exit17
  %38 = ptrtoint ptr %3 to i64
  %39 = and i64 %38, 1
  %.not31 = icmp eq i64 %39, 0
  br i1 %.not31, label %40, label %lean_dec.exit15

40:                                               ; preds = %lean_dec.exit16
  %41 = load i32, ptr %3, align 4, !tbaa !8
  %42 = icmp sgt i32 %41, 1
  br i1 %42, label %43, label %45, !prof !11

43:                                               ; preds = %40
  %44 = add nsw i32 %41, -1
  store i32 %44, ptr %3, align 4, !tbaa !8
  br label %lean_dec.exit15

45:                                               ; preds = %40
  %.not.i23 = icmp eq i32 %41, 0
  br i1 %.not.i23, label %lean_dec.exit15, label %46

46:                                               ; preds = %45
  tail call void @lean_dec_ref_cold(ptr noundef nonnull %3) #4
  br label %lean_dec.exit15

lean_dec.exit15:                                  ; preds = %46, %45, %43, %lean_dec.exit16
  %47 = ptrtoint ptr %2 to i64
  %48 = and i64 %47, 1
  %.not32 = icmp eq i64 %48, 0
  br i1 %.not32, label %49, label %lean_dec.exit14

49:                                               ; preds = %lean_dec.exit15
  %50 = load i32, ptr %2, align 4, !tbaa !8
  %51 = icmp sgt i32 %50, 1
  br i1 %51, label %52, label %54, !prof !11

52:                                               ; preds = %49
  %53 = add nsw i32 %50, -1
  store i32 %53, ptr %2, align 4, !tbaa !8
  br label %lean_dec.exit14

54:                                               ; preds = %49
  %.not.i25 = icmp eq i32 %50, 0
  br i1 %.not.i25, label %lean_dec.exit14, label %55

55:                                               ; preds = %54
  tail call void @lean_dec_ref_cold(ptr noundef nonnull %2) #4
  br label %lean_dec.exit14

lean_dec.exit14:                                  ; preds = %55, %54, %52, %lean_dec.exit15
  %56 = ptrtoint ptr %1 to i64
  %57 = and i64 %56, 1
  %.not33 = icmp eq i64 %57, 0
  br i1 %.not33, label %58, label %lean_dec.exit

58:                                               ; preds = %lean_dec.exit14
  %59 = load i32, ptr %1, align 4, !tbaa !8
  %60 = icmp sgt i32 %59, 1
  br i1 %60, label %61, label %63, !prof !11

61:                                               ; preds = %58
  %62 = add nsw i32 %59, -1
  store i32 %62, ptr %1, align 4, !tbaa !8
  br label %lean_dec.exit

63:                                               ; preds = %58
  %.not.i27 = icmp eq i32 %59, 0
  br i1 %.not.i27, label %lean_dec.exit, label %64

64:                                               ; preds = %63
  tail call void @lean_dec_ref_cold(ptr noundef nonnull %1) #4
  br label %lean_dec.exit

lean_dec.exit:                                    ; preds = %64, %63, %61, %lean_dec.exit14
  ret ptr %19
}